target datalayout = "e-m:e-p270:32:32-p271:32:32-p272:64:64-i64:64-i128:128-f80:128-n8:16:32:64-S128"
target triple = "x86_64-pc-linux-gnu"

%struct.rb_shape_tree_t = type { ptr, ptr, i32, ptr, i32 }

@rb_shape_tree_ptr = hidden global ptr null, align 8

; Function Attrs: inlinehint nounwind sspstrong uwtable
define internal ptr @rb_current_shape_tree() #1 {
  %1 = load ptr, ptr @rb_shape_tree_ptr, align 8, !tbaa !15
  ret ptr %1
}

; Function Attrs: nounwind sspstrong uwtable
define dso_local i32 @rb_shape_id(ptr noundef %0) #0 {
  %2 = alloca ptr, align 8
  store ptr %0, ptr %2, align 8, !tbaa !16
  %3 = load ptr, ptr %2, align 8, !tbaa !16
  %4 = call ptr @rb_current_shape_tree()
  %5 = getelementptr inbounds nuw %struct.rb_shape_tree_t, ptr %4, i32 0, i32 0
  %6 = load ptr, ptr %5, align 8, !tbaa !17
  %7 = ptrtoint ptr %3 to i64
  %8 = ptrtoint ptr %6 to i64
  %9 = sub i64 %7, %8
  %10 = sdiv exact i64 %9, 40
  %11 = trunc i64 %10 to i32
  ret i32 %11
}