; Function Attrs: mustprogress nofree norecurse nosync nounwind sspstrong willreturn memory(read, inaccessiblemem: none) uwtable
define dso_local i32 @rb_shape_id(ptr noundef %0) local_unnamed_addr #0 {
  %2 = load ptr, ptr @rb_shape_tree_ptr, align 8, !tbaa !7
  %3 = load ptr, ptr %2, align 8, !tbaa !16
  %4 = ptrtoint ptr %0 to i64
  %5 = ptrtoint ptr %3 to i64
  %6 = sub i64 %4, %5
  %7 = sdiv exact i64 %6, 40
  %8 = trunc i64 %7 to i32
  ret i32 %8
}